#include <math.h>
#include <stdio.h>
#include <stdlib.h>
#include <string.h>

int main()
{
int i,n,sum=0;
scanf("%d",&n);
for(i=1;i<=n;i++)
{
if (!(i>=70&&i<=79||i%7==0||i%10==7))
{
sum+=i*i;
}
}
printf("%d",sum);
return 0;
}